target datalayout = "e-m:e-p270:32:32-p271:32:32-p272:64:64-i64:64-i128:128-f80:128-n8:16:32:64-S128"
target triple = "x86_64-pc-linux-gnu"

%struct.SDL_VideoDevice = type { ptr, ptr, ptr, ptr, ptr, ptr, ptr, ptr, ptr, ptr, ptr, ptr, ptr, ptr, ptr, ptr, ptr, ptr, ptr, ptr, ptr, ptr, ptr, ptr, ptr, ptr, ptr, ptr, ptr, ptr, ptr, ptr, ptr, ptr, ptr, ptr, ptr, ptr, ptr, ptr, ptr, ptr, ptr, ptr, ptr, ptr, ptr, ptr, ptr, ptr, ptr, ptr, ptr, ptr, ptr, ptr, ptr, ptr, ptr, ptr, ptr, ptr, ptr, ptr, ptr, ptr, ptr, ptr, ptr, ptr, ptr, ptr, ptr, ptr, ptr, ptr, ptr, ptr, ptr, ptr, ptr, ptr, ptr, ptr, ptr, ptr, ptr, ptr, ptr, ptr, ptr, ptr, ptr, ptr, ptr, ptr, ptr, i64, i8, i8, i8, ptr, i32, ptr, %struct.SDL_Rect, ptr, ptr, i32, ptr, ptr, ptr, ptr, i64, ptr, i8, i32, i32, %struct.anon, ptr, ptr, ptr, ptr, ptr, ptr, %struct.SDL_AtomicInt, %struct.SDL_AtomicInt, i8, %struct.anon.0, ptr, ptr, ptr, ptr, ptr }
%struct.SDL_Rect = type { i32, i32, i32, i32 }
%struct.anon = type { i32, i32, i32, i32, i32, i32, i32, i32, i32, i32, i32, i32, i32, i32, i32, i32, i32, i32, i32, i32, i32, i32, i32, i32, i32, i32, i32, i32, i32, [256 x i8], ptr }
%struct.SDL_AtomicInt = type { i32 }
%struct.anon.0 = type { ptr, ptr, i32, [256 x i8], ptr }
%struct.SDL_VideoData = type { i8, ptr, i32, ptr, ptr, ptr, ptr, i32, %struct.anon.1, ptr, ptr, ptr, ptr, ptr, ptr, ptr, ptr, ptr, ptr, ptr, ptr, ptr, ptr, ptr, ptr, ptr, ptr, ptr, ptr, ptr, ptr, %struct.wl_list, ptr, ptr, ptr, ptr, i32, i32, i8, i8 }
%struct.anon.1 = type { ptr }
%struct.wl_list = type { ptr, ptr }
%struct.SDL_WaylandSeat = type { ptr, ptr, ptr, ptr, ptr, %struct.wl_list, i32, i32, %struct.anon.2, %struct.anon.4, %struct.anon.7, %struct.anon.8, %struct.anon.9 }
%struct.anon.2 = type { ptr, ptr, ptr, ptr, ptr, %struct.SDL_WaylandKeyboardRepeat, i64, i16, i16, i32, i8, %struct.anon.3 }
%struct.SDL_WaylandKeyboardRepeat = type { i32, i32, i32, i8, i8, i32, i64, i64, i64, i32, [8 x i8] }
%struct.anon.3 = type { ptr, ptr, ptr, ptr, i32, i32, i32, i32, i32, i32, i32, i32, i32, i32, i32 }
%struct.anon.4 = type { ptr, ptr, ptr, ptr, ptr, ptr, ptr, ptr, i64, i32, i32, %struct.SDL_Point, i32, %struct.anon.5, %struct.anon.6 }
%struct.SDL_Point = type { i32, i32 }
%struct.anon.5 = type { i32, float, i32, float, i64, i32 }
%struct.anon.6 = type { ptr, ptr, ptr, i64, i64, i32 }
%struct.anon.7 = type { ptr, ptr, i64, %struct.wl_list }
%struct.anon.8 = type { ptr, %struct.SDL_Rect, i8, i8 }
%struct.anon.9 = type { ptr, %struct.wl_list }
%struct.SDL_WaylandPrimarySelectionDevice = type { ptr, ptr, i32, ptr, ptr }

@text_mime_types = internal global [5 x ptr] [ptr @.str.1, ptr @.str.3, ptr @.str.4, ptr @.str.5, ptr @.str.6], align 16
@.str.1 = private unnamed_addr constant [25 x i8] c"text/plain;charset=utf-8\00", align 1
@.str.2 = private unnamed_addr constant [1 x i8] zeroinitializer, align 1

; Function Attrs: nounwind uwtable
define hidden ptr @Wayland_GetPrimarySelectionText(ptr noundef %0) #0 {
  %2 = alloca ptr, align 8
  %3 = alloca ptr, align 8
  %4 = alloca ptr, align 8
  %5 = alloca ptr, align 8
  %6 = alloca i64, align 8
  %7 = alloca ptr, align 8
  %8 = alloca i64, align 8
  %9 = alloca i32, align 4
  store ptr %0, ptr %2, align 8
  call void @llvm.lifetime.start.p0(i64 8, ptr %3) #3
  %10 = load ptr, ptr %2, align 8
  %11 = getelementptr inbounds nuw %struct.SDL_VideoDevice, ptr %10, i32 0, i32 128
  %12 = load ptr, ptr %11, align 8
  store ptr %12, ptr %3, align 8
  call void @llvm.lifetime.start.p0(i64 8, ptr %4) #3
  %13 = load ptr, ptr %3, align 8
  %14 = getelementptr inbounds nuw %struct.SDL_VideoData, ptr %13, i32 0, i32 34
  %15 = load ptr, ptr %14, align 8
  store ptr %15, ptr %4, align 8
  call void @llvm.lifetime.start.p0(i64 8, ptr %5) #3
  store ptr null, ptr %5, align 8
  call void @llvm.lifetime.start.p0(i64 8, ptr %6) #3
  store i64 0, ptr %6, align 8
  %16 = load ptr, ptr %4, align 8
  %17 = icmp ne ptr %16, null
  br i1 %17, label %18, label %64

18:                                               ; preds = %1
  %19 = load ptr, ptr %4, align 8
  %20 = getelementptr inbounds nuw %struct.SDL_WaylandSeat, ptr %19, i32 0, i32 3
  %21 = load ptr, ptr %20, align 8
  %22 = icmp ne ptr %21, null
  br i1 %22, label %23, label %64

23:                                               ; preds = %18
  call void @llvm.lifetime.start.p0(i64 8, ptr %7) #3
  %24 = load ptr, ptr %4, align 8
  %25 = getelementptr inbounds nuw %struct.SDL_WaylandSeat, ptr %24, i32 0, i32 3
  %26 = load ptr, ptr %25, align 8
  store ptr %26, ptr %7, align 8
  %27 = load ptr, ptr %7, align 8
  %28 = getelementptr inbounds nuw %struct.SDL_WaylandPrimarySelectionDevice, ptr %27, i32 0, i32 3
  %29 = load ptr, ptr %28, align 8
  %30 = icmp ne ptr %29, null
  br i1 %30, label %31, label %36

31:                                               ; preds = %23
  %32 = load ptr, ptr %7, align 8
  %33 = getelementptr inbounds nuw %struct.SDL_WaylandPrimarySelectionDevice, ptr %32, i32 0, i32 3
  %34 = load ptr, ptr %33, align 8
  %35 = call ptr @Wayland_primary_selection_source_get_data(ptr noundef %34, ptr noundef @.str.1, ptr noundef %6)
  store ptr %35, ptr %5, align 8
  br label %63

36:                                               ; preds = %23
  call void @llvm.lifetime.start.p0(i64 8, ptr %8) #3
  store i64 0, ptr %8, align 8
  br label %37

37:                                               ; preds = %58, %36
  %38 = load i64, ptr %8, align 8
  %39 = icmp ult i64 %38, 5
  br i1 %39, label %41, label %40

40:                                               ; preds = %37
  store i32 2, ptr %9, align 4
  br label %61

41:                                               ; preds = %37
  %42 = load ptr, ptr %7, align 8
  %43 = getelementptr inbounds nuw %struct.SDL_WaylandPrimarySelectionDevice, ptr %42, i32 0, i32 4
  %44 = load ptr, ptr %43, align 8
  %45 = load i64, ptr %8, align 8
  %46 = getelementptr inbounds nuw [5 x ptr], ptr @text_mime_types, i64 0, i64 %45
  %47 = load ptr, ptr %46, align 8
  %48 = call zeroext i1 @Wayland_primary_selection_offer_has_mime(ptr noundef %44, ptr noundef %47)
  br i1 %48, label %49, label %57

49:                                               ; preds = %41
  %50 = load ptr, ptr %7, align 8
  %51 = getelementptr inbounds nuw %struct.SDL_WaylandPrimarySelectionDevice, ptr %50, i32 0, i32 4
  %52 = load ptr, ptr %51, align 8
  %53 = load i64, ptr %8, align 8
  %54 = getelementptr inbounds nuw [5 x ptr], ptr @text_mime_types, i64 0, i64 %53
  %55 = load ptr, ptr %54, align 8
  %56 = call ptr @Wayland_primary_selection_offer_receive(ptr noundef %52, ptr noundef %55, ptr noundef %6)
  store ptr %56, ptr %5, align 8
  store i32 2, ptr %9, align 4
  br label %61

57:                                               ; preds = %41
  br label %58

58:                                               ; preds = %57
  %59 = load i64, ptr %8, align 8
  %60 = add i64 %59, 1
  store i64 %60, ptr %8, align 8
  br label %37, !llvm.loop !5

61:                                               ; preds = %49, %40
  call void @llvm.lifetime.end.p0(i64 8, ptr %8) #3
  br label %62

62:                                               ; preds = %61
  br label %63

63:                                               ; preds = %62, %31
  call void @llvm.lifetime.end.p0(i64 8, ptr %7) #3
  br label %64

64:                                               ; preds = %63, %18, %1
  %65 = load ptr, ptr %5, align 8
  %66 = icmp ne ptr %65, null
  br i1 %66, label %69, label %67

67:                                               ; preds = %64
  %68 = call noalias ptr @SDL_strdup_REAL(ptr noundef @.str.2)
  store ptr %68, ptr %5, align 8
  br label %69

69:                                               ; preds = %67, %64
  %70 = load ptr, ptr %5, align 8
  store i32 1, ptr %9, align 4
  call void @llvm.lifetime.end.p0(i64 8, ptr %6) #3
  call void @llvm.lifetime.end.p0(i64 8, ptr %5) #3
  call void @llvm.lifetime.end.p0(i64 8, ptr %4) #3
  call void @llvm.lifetime.end.p0(i64 8, ptr %3) #3
  ret ptr %70
}