; Function Attrs: nounwind uwtable
define hidden ptr @Wayland_GetPrimarySelectionText(ptr noundef readonly captures(none) %0) local_unnamed_addr #0 {
  %2 = alloca i64, align 8
  %3 = getelementptr inbounds nuw i8, ptr %0, i64 1656
  %4 = load ptr, ptr %3, align 8
  %5 = getelementptr inbounds nuw i8, ptr %4, i64 280
  %6 = load ptr, ptr %5, align 8
  call void @llvm.lifetime.start.p0(i64 8, ptr nonnull %2) #4
  store i64 0, ptr %2, align 8
  %.not = icmp eq ptr %6, null
  br i1 %.not, label %.thread, label %7

7:                                                ; preds = %1
  %8 = getelementptr inbounds nuw i8, ptr %6, i64 24
  %9 = load ptr, ptr %8, align 8
  %.not18 = icmp eq ptr %9, null
  br i1 %.not18, label %.thread, label %10

10:                                               ; preds = %7
  %11 = getelementptr inbounds nuw i8, ptr %9, i64 24
  %12 = load ptr, ptr %11, align 8
  %.not19 = icmp eq ptr %12, null
  br i1 %.not19, label %.preheader, label %14

.preheader:                                       ; preds = %10
  %13 = getelementptr inbounds nuw i8, ptr %9, i64 32
  br label %16

14:                                               ; preds = %10
  %15 = call ptr @Wayland_primary_selection_source_get_data(ptr noundef nonnull %12, ptr noundef nonnull @.str.1, ptr noundef nonnull %2) #4
  br label %28

16:                                               ; preds = %.preheader, %26
  %.024 = phi i64 [ 0, %.preheader ], [ %27, %26 ]
  %17 = load ptr, ptr %13, align 8
  %18 = getelementptr inbounds nuw [5 x ptr], ptr @text_mime_types, i64 0, i64 %.024
  %19 = load ptr, ptr %18, align 8
  %20 = tail call zeroext i1 @Wayland_primary_selection_offer_has_mime(ptr noundef %17, ptr noundef %19) #4
  br i1 %20, label %21, label %26

21:                                               ; preds = %16
  %22 = getelementptr inbounds nuw [5 x ptr], ptr @text_mime_types, i64 0, i64 %.024
  %23 = load ptr, ptr %13, align 8
  %24 = load ptr, ptr %22, align 8
  %25 = call ptr @Wayland_primary_selection_offer_receive(ptr noundef %23, ptr noundef %24, ptr noundef nonnull %2) #4
  br label %28

26:                                               ; preds = %16
  %27 = add nuw nsw i64 %.024, 1
  %exitcond.not = icmp eq i64 %27, 5
  br i1 %exitcond.not, label %.thread, label %16, !llvm.loop !3

28:                                               ; preds = %14, %21
  %.014 = phi ptr [ %15, %14 ], [ %25, %21 ]
  %.not20 = icmp eq ptr %.014, null
  br i1 %.not20, label %.thread, label %30

.thread:                                          ; preds = %26, %1, %7, %28
  %29 = call noalias ptr @SDL_strdup_REAL(ptr noundef nonnull @.str.2) #4
  br label %30

30:                                               ; preds = %.thread, %28
  %.3 = phi ptr [ %.014, %28 ], [ %29, %.thread ]
  call void @llvm.lifetime.end.p0(i64 8, ptr nonnull %2) #4
  ret ptr %.3
}